target datalayout = "e-m:e-p270:32:32-p271:32:32-p272:64:64-i64:64-i128:128-f80:128-n8:16:32:64-S128"
target triple = "x86_64-pc-linux-gnu"

@.str.158 = private unnamed_addr constant [9 x i8] c"#endif\0A\0A\00", align 1
@.str.163 = private unnamed_addr constant [33 x i8] c"/* Symbol visibility in DLLs */\0A\00", align 1
@.str.164 = private unnamed_addr constant [30 x i8] c"#ifndef CASADI_SYMBOL_EXPORT\0A\00", align 1
@.str.165 = private unnamed_addr constant [68 x i8] c"  #if defined(_WIN32) || defined(__WIN32__) || defined(__CYGWIN__)\0A\00", align 1
@.str.166 = private unnamed_addr constant [32 x i8] c"    #if defined(STATIC_LINKED)\0A\00", align 1
@.str.167 = private unnamed_addr constant [36 x i8] c"      #define CASADI_SYMBOL_EXPORT\0A\00", align 1
@.str.168 = private unnamed_addr constant [11 x i8] c"    #else\0A\00", align 1
@.str.169 = private unnamed_addr constant [58 x i8] c"      #define CASADI_SYMBOL_EXPORT __declspec(dllexport)\0A\00", align 1
@.str.170 = private unnamed_addr constant [12 x i8] c"    #endif\0A\00", align 1
@.str.171 = private unnamed_addr constant [62 x i8] c"  #elif defined(__GNUC__) && defined(GCC_HASCLASSVISIBILITY)\0A\00", align 1
@.str.172 = private unnamed_addr constant [75 x i8] c"    #define CASADI_SYMBOL_EXPORT __attribute__ ((visibility (\22default\22)))\0A\00", align 1
@.str.173 = private unnamed_addr constant [8 x i8] c"  #else\00", align 1
@.str.174 = private unnamed_addr constant [34 x i8] c"    #define CASADI_SYMBOL_EXPORT\0A\00", align 1
@.str.175 = private unnamed_addr constant [10 x i8] c"  #endif\0A\00", align 1

; Function Attrs: mustprogress uwtable
define void @_ZNK6casadi13CodeGenerator22generate_export_symbolERSo(ptr noundef nonnull align 8 dereferenceable(3097) %0, ptr noundef nonnull align 8 dereferenceable(8) %1) #4 align 2 {
  %3 = alloca ptr, align 8
  %4 = alloca ptr, align 8
  store ptr %0, ptr %3, align 8
  store ptr %1, ptr %4, align 8
  %5 = load ptr, ptr %4, align 8
  %6 = call noundef nonnull align 8 dereferenceable(8) ptr @_ZStlsISt11char_traitsIcEERSt13basic_ostreamIcT_ES5_PKc(ptr noundef nonnull align 8 dereferenceable(8) %5, ptr noundef @.str.163)
  %7 = call noundef nonnull align 8 dereferenceable(8) ptr @_ZStlsISt11char_traitsIcEERSt13basic_ostreamIcT_ES5_PKc(ptr noundef nonnull align 8 dereferenceable(8) %6, ptr noundef @.str.164)
  %8 = call noundef nonnull align 8 dereferenceable(8) ptr @_ZStlsISt11char_traitsIcEERSt13basic_ostreamIcT_ES5_PKc(ptr noundef nonnull align 8 dereferenceable(8) %7, ptr noundef @.str.165)
  %9 = call noundef nonnull align 8 dereferenceable(8) ptr @_ZStlsISt11char_traitsIcEERSt13basic_ostreamIcT_ES5_PKc(ptr noundef nonnull align 8 dereferenceable(8) %8, ptr noundef @.str.166)
  %10 = call noundef nonnull align 8 dereferenceable(8) ptr @_ZStlsISt11char_traitsIcEERSt13basic_ostreamIcT_ES5_PKc(ptr noundef nonnull align 8 dereferenceable(8) %9, ptr noundef @.str.167)
  %11 = call noundef nonnull align 8 dereferenceable(8) ptr @_ZStlsISt11char_traitsIcEERSt13basic_ostreamIcT_ES5_PKc(ptr noundef nonnull align 8 dereferenceable(8) %10, ptr noundef @.str.168)
  %12 = call noundef nonnull align 8 dereferenceable(8) ptr @_ZStlsISt11char_traitsIcEERSt13basic_ostreamIcT_ES5_PKc(ptr noundef nonnull align 8 dereferenceable(8) %11, ptr noundef @.str.169)
  %13 = call noundef nonnull align 8 dereferenceable(8) ptr @_ZStlsISt11char_traitsIcEERSt13basic_ostreamIcT_ES5_PKc(ptr noundef nonnull align 8 dereferenceable(8) %12, ptr noundef @.str.170)
  %14 = call noundef nonnull align 8 dereferenceable(8) ptr @_ZStlsISt11char_traitsIcEERSt13basic_ostreamIcT_ES5_PKc(ptr noundef nonnull align 8 dereferenceable(8) %13, ptr noundef @.str.171)
  %15 = call noundef nonnull align 8 dereferenceable(8) ptr @_ZStlsISt11char_traitsIcEERSt13basic_ostreamIcT_ES5_PKc(ptr noundef nonnull align 8 dereferenceable(8) %14, ptr noundef @.str.172)
  %16 = call noundef nonnull align 8 dereferenceable(8) ptr @_ZStlsISt11char_traitsIcEERSt13basic_ostreamIcT_ES5_PKc(ptr noundef nonnull align 8 dereferenceable(8) %15, ptr noundef @.str.173)
  %17 = call noundef nonnull align 8 dereferenceable(8) ptr @_ZNSolsEPFRSoS_E(ptr noundef nonnull align 8 dereferenceable(8) %16, ptr noundef @_ZSt4endlIcSt11char_traitsIcEERSt13basic_ostreamIT_T0_ES6_)
  %18 = call noundef nonnull align 8 dereferenceable(8) ptr @_ZStlsISt11char_traitsIcEERSt13basic_ostreamIcT_ES5_PKc(ptr noundef nonnull align 8 dereferenceable(8) %17, ptr noundef @.str.174)
  %19 = call noundef nonnull align 8 dereferenceable(8) ptr @_ZStlsISt11char_traitsIcEERSt13basic_ostreamIcT_ES5_PKc(ptr noundef nonnull align 8 dereferenceable(8) %18, ptr noundef @.str.175)
  %20 = call noundef nonnull align 8 dereferenceable(8) ptr @_ZStlsISt11char_traitsIcEERSt13basic_ostreamIcT_ES5_PKc(ptr noundef nonnull align 8 dereferenceable(8) %19, ptr noundef @.str.158)
  ret void
}